target datalayout = "e-m:e-p270:32:32-p271:32:32-p272:64:64-i64:64-i128:128-f80:128-n8:16:32:64-S128"
target triple = "x86_64-pc-linux-gnu"

%struct.SDL_GUID = type { [16 x i8] }
%struct.SDL_Joystick = type { i32, ptr, ptr, ptr, %struct.SDL_GUID, i16, i64, i8, i8, i32, ptr, i32, ptr, i32, ptr, i32, ptr, i32, ptr, i32, i32, ptr, i16, i16, i64, i64, i16, i16, i64, i64, i8, i8, i8, i64, i8, i32, i32, i32, i8, i32, ptr, i32, ptr, [3 x [3 x float]], i64, ptr, ptr, i32, i32, ptr }
%struct.SDL_JoystickAxisInfo = type { i16, i16, i16, i8, i8, i8, i8 }
%union.SDL_Event = type { %struct.SDL_MouseWheelEvent, [72 x i8] }
%struct.SDL_MouseWheelEvent = type { i32, i32, i64, i32, i32, float, float, i32, float, float, i32, i32 }
%struct.SDL_CommonEvent = type { i32, i32, i64 }
%struct.SDL_JoyAxisEvent = type { i32, i32, i64, i32, i8, i8, i8, i8, i16, i16 }

@SDL_joystick_allows_background_events = internal global i8 0, align 1

; Function Attrs: nounwind uwtable
define internal zeroext i1 @SDL_PrivateJoystickShouldIgnoreEvent() #0 {
  %1 = alloca i1, align 1
  %2 = load i8, ptr @SDL_joystick_allows_background_events, align 1, !range !3, !noundef !4
  %3 = trunc i8 %2 to i1
  br i1 %3, label %4, label %5

4:                                                ; preds = %0
  store i1 false, ptr %1, align 1
  br label %12

5:                                                ; preds = %0
  %6 = call zeroext i1 @SDL_HasWindows()
  br i1 %6, label %7, label %11

7:                                                ; preds = %5
  %8 = call ptr @SDL_GetKeyboardFocus_REAL()
  %9 = icmp eq ptr %8, null
  br i1 %9, label %10, label %11

10:                                               ; preds = %7
  store i1 true, ptr %1, align 1
  br label %12

11:                                               ; preds = %7, %5
  store i1 false, ptr %1, align 1
  br label %12

12:                                               ; preds = %11, %10, %4
  %13 = load i1, ptr %1, align 1
  ret i1 %13
}

; Function Attrs: nounwind uwtable
define hidden zeroext i1 @SDL_IsJoystickVIRTUAL(i64 %0, i64 %1) #0 {
  %3 = alloca %struct.SDL_GUID, align 1
  %4 = getelementptr inbounds nuw { i64, i64 }, ptr %3, i32 0, i32 0
  store i64 %0, ptr %4, align 1
  %5 = getelementptr inbounds nuw { i64, i64 }, ptr %3, i32 0, i32 1
  store i64 %1, ptr %5, align 1
  %6 = getelementptr inbounds nuw %struct.SDL_GUID, ptr %3, i32 0, i32 0
  %7 = getelementptr inbounds [16 x i8], ptr %6, i64 0, i64 14
  %8 = load i8, ptr %7, align 1
  %9 = zext i8 %8 to i32
  %10 = icmp eq i32 %9, 118
  %11 = select i1 %10, i32 1, i32 0
  %12 = icmp ne i32 %11, 0
  ret i1 %12
}

; Function Attrs: nounwind uwtable
define hidden void @SDL_AssertJoysticksLocked() #0 {
  br label %1

1:                                                ; preds = %0
  br label %2

2:                                                ; preds = %1
  ret void
}

; Function Attrs: nounwind uwtable
define hidden void @SDL_SendJoystickAxis(i64 noundef %0, ptr noundef %1, i8 noundef zeroext %2, i16 noundef signext %3) #0 {
  %5 = alloca i64, align 8
  %6 = alloca ptr, align 8
  %7 = alloca i8, align 1
  %8 = alloca i16, align 2
  %9 = alloca ptr, align 8
  %10 = alloca i32, align 4
  %11 = alloca i32, align 4
  %12 = alloca %union.SDL_Event, align 8
  store i64 %0, ptr %5, align 8
  store ptr %1, ptr %6, align 8
  store i8 %2, ptr %7, align 1
  store i16 %3, ptr %8, align 2
  call void @llvm.lifetime.start.p0(i64 8, ptr %9) #7
  call void @SDL_AssertJoysticksLocked()
  %13 = load i8, ptr %7, align 1
  %14 = zext i8 %13 to i32
  %15 = load ptr, ptr %6, align 8
  %16 = getelementptr inbounds nuw %struct.SDL_Joystick, ptr %15, i32 0, i32 9
  %17 = load i32, ptr %16, align 4
  %18 = icmp sge i32 %14, %17
  br i1 %18, label %19, label %20

19:                                               ; preds = %4
  store i32 1, ptr %10, align 4
  br label %188

20:                                               ; preds = %4
  %21 = load ptr, ptr %6, align 8
  %22 = getelementptr inbounds nuw %struct.SDL_Joystick, ptr %21, i32 0, i32 10
  %23 = load ptr, ptr %22, align 8
  %24 = load i8, ptr %7, align 1
  %25 = zext i8 %24 to i64
  %26 = getelementptr inbounds nuw %struct.SDL_JoystickAxisInfo, ptr %23, i64 %25
  store ptr %26, ptr %9, align 8
  %27 = load ptr, ptr %9, align 8
  %28 = getelementptr inbounds nuw %struct.SDL_JoystickAxisInfo, ptr %27, i32 0, i32 3
  %29 = load i8, ptr %28, align 2, !range !3, !noundef !4
  %30 = trunc i8 %29 to i1
  br i1 %30, label %31, label %53

31:                                               ; preds = %20
  %32 = load ptr, ptr %9, align 8
  %33 = getelementptr inbounds nuw %struct.SDL_JoystickAxisInfo, ptr %32, i32 0, i32 4
  %34 = load i8, ptr %33, align 1, !range !3, !noundef !4
  %35 = trunc i8 %34 to i1
  br i1 %35, label %65, label %36

36:                                               ; preds = %31
  %37 = load ptr, ptr %9, align 8
  %38 = getelementptr inbounds nuw %struct.SDL_JoystickAxisInfo, ptr %37, i32 0, i32 0
  %39 = load i16, ptr %38, align 2
  %40 = sext i16 %39 to i32
  %41 = icmp sle i32 %40, -32767
  br i1 %41, label %48, label %42

42:                                               ; preds = %36
  %43 = load ptr, ptr %9, align 8
  %44 = getelementptr inbounds nuw %struct.SDL_JoystickAxisInfo, ptr %43, i32 0, i32 0
  %45 = load i16, ptr %44, align 2
  %46 = sext i16 %45 to i32
  %47 = icmp eq i32 %46, 32767
  br i1 %47, label %48, label %65

48:                                               ; preds = %42, %36
  %49 = load i16, ptr %8, align 2
  %50 = sext i16 %49 to i32
  %51 = call i32 @SDL_abs_REAL(i32 noundef %50)
  %52 = icmp slt i32 %51, 8191
  br i1 %52, label %53, label %65

53:                                               ; preds = %48, %20
  %54 = load i16, ptr %8, align 2
  %55 = load ptr, ptr %9, align 8
  %56 = getelementptr inbounds nuw %struct.SDL_JoystickAxisInfo, ptr %55, i32 0, i32 0
  store i16 %54, ptr %56, align 2
  %57 = load i16, ptr %8, align 2
  %58 = load ptr, ptr %9, align 8
  %59 = getelementptr inbounds nuw %struct.SDL_JoystickAxisInfo, ptr %58, i32 0, i32 1
  store i16 %57, ptr %59, align 2
  %60 = load i16, ptr %8, align 2
  %61 = load ptr, ptr %9, align 8
  %62 = getelementptr inbounds nuw %struct.SDL_JoystickAxisInfo, ptr %61, i32 0, i32 2
  store i16 %60, ptr %62, align 2
  %63 = load ptr, ptr %9, align 8
  %64 = getelementptr inbounds nuw %struct.SDL_JoystickAxisInfo, ptr %63, i32 0, i32 3
  store i8 1, ptr %64, align 2
  br label %83

65:                                               ; preds = %48, %42, %31
  %66 = load i16, ptr %8, align 2
  %67 = sext i16 %66 to i32
  %68 = load ptr, ptr %9, align 8
  %69 = getelementptr inbounds nuw %struct.SDL_JoystickAxisInfo, ptr %68, i32 0, i32 1
  %70 = load i16, ptr %69, align 2
  %71 = sext i16 %70 to i32
  %72 = icmp eq i32 %67, %71
  br i1 %72, label %73, label %79

73:                                               ; preds = %65
  %74 = load ptr, ptr %9, align 8
  %75 = getelementptr inbounds nuw %struct.SDL_JoystickAxisInfo, ptr %74, i32 0, i32 6
  %76 = load i8, ptr %75, align 1, !range !3, !noundef !4
  %77 = trunc i8 %76 to i1
  br i1 %77, label %79, label %78

78:                                               ; preds = %73
  store i32 1, ptr %10, align 4
  br label %188

79:                                               ; preds = %73, %65
  %80 = load ptr, ptr %9, align 8
  %81 = getelementptr inbounds nuw %struct.SDL_JoystickAxisInfo, ptr %80, i32 0, i32 4
  store i8 1, ptr %81, align 1
  br label %82

82:                                               ; preds = %79
  br label %83

83:                                               ; preds = %82, %53
  %84 = load ptr, ptr %9, align 8
  %85 = getelementptr inbounds nuw %struct.SDL_JoystickAxisInfo, ptr %84, i32 0, i32 5
  %86 = load i8, ptr %85, align 2, !range !3, !noundef !4
  %87 = trunc i8 %86 to i1
  br i1 %87, label %123, label %88

88:                                               ; preds = %83
  call void @llvm.lifetime.start.p0(i64 4, ptr %11) #7
  store i32 409, ptr %11, align 4
  %89 = load i16, ptr %8, align 2
  %90 = sext i16 %89 to i32
  %91 = load ptr, ptr %9, align 8
  %92 = getelementptr inbounds nuw %struct.SDL_JoystickAxisInfo, ptr %91, i32 0, i32 1
  %93 = load i16, ptr %92, align 2
  %94 = sext i16 %93 to i32
  %95 = sub nsw i32 %90, %94
  %96 = call i32 @SDL_abs_REAL(i32 noundef %95)
  %97 = icmp sle i32 %96, 409
  br i1 %97, label %98, label %107

98:                                               ; preds = %88
  %99 = load ptr, ptr %6, align 8
  %100 = getelementptr inbounds nuw %struct.SDL_Joystick, ptr %99, i32 0, i32 4
  %101 = getelementptr inbounds nuw { i64, i64 }, ptr %100, i32 0, i32 0
  %102 = load i64, ptr %101, align 8
  %103 = getelementptr inbounds nuw { i64, i64 }, ptr %100, i32 0, i32 1
  %104 = load i64, ptr %103, align 8
  %105 = call zeroext i1 @SDL_IsJoystickVIRTUAL(i64 %102, i64 %104)
  br i1 %105, label %107, label %106

106:                                              ; preds = %98
  store i32 1, ptr %10, align 4
  br label %120

107:                                              ; preds = %98, %88
  %108 = load ptr, ptr %9, align 8
  %109 = getelementptr inbounds nuw %struct.SDL_JoystickAxisInfo, ptr %108, i32 0, i32 5
  store i8 1, ptr %109, align 2
  %110 = load ptr, ptr %9, align 8
  %111 = getelementptr inbounds nuw %struct.SDL_JoystickAxisInfo, ptr %110, i32 0, i32 6
  store i8 1, ptr %111, align 1
  %112 = load i64, ptr %5, align 8
  %113 = load ptr, ptr %6, align 8
  %114 = load i8, ptr %7, align 1
  %115 = load ptr, ptr %9, align 8
  %116 = getelementptr inbounds nuw %struct.SDL_JoystickAxisInfo, ptr %115, i32 0, i32 0
  %117 = load i16, ptr %116, align 2
  call void @SDL_SendJoystickAxis(i64 noundef %112, ptr noundef %113, i8 noundef zeroext %114, i16 noundef signext %117)
  %118 = load ptr, ptr %9, align 8
  %119 = getelementptr inbounds nuw %struct.SDL_JoystickAxisInfo, ptr %118, i32 0, i32 6
  store i8 0, ptr %119, align 1
  store i32 0, ptr %10, align 4
  br label %120

120:                                              ; preds = %107, %106
  call void @llvm.lifetime.end.p0(i64 4, ptr %11) #7
  %121 = load i32, ptr %10, align 4
  switch i32 %121, label %188 [
    i32 0, label %122
  ]

122:                                              ; preds = %120
  br label %123

123:                                              ; preds = %122, %83
  %124 = call zeroext i1 @SDL_PrivateJoystickShouldIgnoreEvent()
  br i1 %124, label %125, label %164

125:                                              ; preds = %123
  %126 = load ptr, ptr %9, align 8
  %127 = getelementptr inbounds nuw %struct.SDL_JoystickAxisInfo, ptr %126, i32 0, i32 6
  %128 = load i8, ptr %127, align 1, !range !3, !noundef !4
  %129 = trunc i8 %128 to i1
  br i1 %129, label %162, label %130

130:                                              ; preds = %125
  %131 = load i16, ptr %8, align 2
  %132 = sext i16 %131 to i32
  %133 = load ptr, ptr %9, align 8
  %134 = getelementptr inbounds nuw %struct.SDL_JoystickAxisInfo, ptr %133, i32 0, i32 2
  %135 = load i16, ptr %134, align 2
  %136 = sext i16 %135 to i32
  %137 = icmp sgt i32 %132, %136
  br i1 %137, label %138, label %146

138:                                              ; preds = %130
  %139 = load i16, ptr %8, align 2
  %140 = sext i16 %139 to i32
  %141 = load ptr, ptr %9, align 8
  %142 = getelementptr inbounds nuw %struct.SDL_JoystickAxisInfo, ptr %141, i32 0, i32 1
  %143 = load i16, ptr %142, align 2
  %144 = sext i16 %143 to i32
  %145 = icmp sge i32 %140, %144
  br i1 %145, label %162, label %146

146:                                              ; preds = %138, %130
  %147 = load i16, ptr %8, align 2
  %148 = sext i16 %147 to i32
  %149 = load ptr, ptr %9, align 8
  %150 = getelementptr inbounds nuw %struct.SDL_JoystickAxisInfo, ptr %149, i32 0, i32 2
  %151 = load i16, ptr %150, align 2
  %152 = sext i16 %151 to i32
  %153 = icmp slt i32 %148, %152
  br i1 %153, label %154, label %163

154:                                              ; preds = %146
  %155 = load i16, ptr %8, align 2
  %156 = sext i16 %155 to i32
  %157 = load ptr, ptr %9, align 8
  %158 = getelementptr inbounds nuw %struct.SDL_JoystickAxisInfo, ptr %157, i32 0, i32 1
  %159 = load i16, ptr %158, align 2
  %160 = sext i16 %159 to i32
  %161 = icmp sle i32 %156, %160
  br i1 %161, label %162, label %163

162:                                              ; preds = %154, %138, %125
  store i32 1, ptr %10, align 4
  br label %188

163:                                              ; preds = %154, %146
  br label %164

164:                                              ; preds = %163, %123
  br label %165

165:                                              ; preds = %164
  br label %166

166:                                              ; preds = %165
  br label %167

167:                                              ; preds = %166
  %168 = load i16, ptr %8, align 2
  %169 = load ptr, ptr %9, align 8
  %170 = getelementptr inbounds nuw %struct.SDL_JoystickAxisInfo, ptr %169, i32 0, i32 1
  store i16 %168, ptr %170, align 2
  %171 = load i64, ptr %5, align 8
  %172 = load ptr, ptr %6, align 8
  %173 = getelementptr inbounds nuw %struct.SDL_Joystick, ptr %172, i32 0, i32 44
  store i64 %171, ptr %173, align 8
  %174 = call zeroext i1 @SDL_EventEnabled_REAL(i32 noundef 1536)
  br i1 %174, label %175, label %187

175:                                              ; preds = %167
  call void @llvm.lifetime.start.p0(i64 128, ptr %12) #7
  store i32 1536, ptr %12, align 8
  %176 = load i64, ptr %5, align 8
  %177 = getelementptr inbounds nuw %struct.SDL_CommonEvent, ptr %12, i32 0, i32 2
  store i64 %176, ptr %177, align 8
  %178 = load ptr, ptr %6, align 8
  %179 = getelementptr inbounds nuw %struct.SDL_Joystick, ptr %178, i32 0, i32 0
  %180 = load i32, ptr %179, align 8
  %181 = getelementptr inbounds nuw %struct.SDL_JoyAxisEvent, ptr %12, i32 0, i32 3
  store i32 %180, ptr %181, align 8
  %182 = load i8, ptr %7, align 1
  %183 = getelementptr inbounds nuw %struct.SDL_JoyAxisEvent, ptr %12, i32 0, i32 4
  store i8 %182, ptr %183, align 4
  %184 = load i16, ptr %8, align 2
  %185 = getelementptr inbounds nuw %struct.SDL_JoyAxisEvent, ptr %12, i32 0, i32 8
  store i16 %184, ptr %185, align 8
  %186 = call zeroext i1 @SDL_PushEvent_REAL(ptr noundef %12)
  call void @llvm.lifetime.end.p0(i64 128, ptr %12) #7
  br label %187

187:                                              ; preds = %175, %167
  store i32 0, ptr %10, align 4
  br label %188

188:                                              ; preds = %187, %162, %120, %78, %19
  call void @llvm.lifetime.end.p0(i64 8, ptr %9) #7
  %189 = load i32, ptr %10, align 4
  switch i32 %189, label %191 [
    i32 0, label %190
    i32 1, label %190
  ]

190:                                              ; preds = %188, %188
  ret void

191:                                              ; preds = %188
  unreachable
}