; Function Attrs: nounwind uwtable
define hidden void @SDL_SendJoystickAxis(i64 noundef %0, ptr noundef captures(none) %1, i8 noundef zeroext %2, i16 noundef signext %3) local_unnamed_addr #1 {
  %5 = alloca %union.SDL_Event, align 8
  %6 = zext i8 %2 to i32
  %7 = getelementptr inbounds nuw i8, ptr %1, i64 68
  %8 = load i32, ptr %7, align 4
  %.not = icmp sgt i32 %8, %6
  br i1 %.not, label %9, label %88

9:                                                ; preds = %4
  %10 = getelementptr inbounds nuw i8, ptr %1, i64 72
  %11 = load ptr, ptr %10, align 8
  %12 = zext i8 %2 to i64
  %13 = getelementptr inbounds nuw %struct.SDL_JoystickAxisInfo, ptr %11, i64 %12
  %14 = getelementptr inbounds nuw i8, ptr %13, i64 6
  %15 = load i8, ptr %14, align 2, !range !26, !noundef !27
  %16 = trunc nuw i8 %15 to i1
  br i1 %16, label %17, label %27

17:                                               ; preds = %9
  %18 = getelementptr inbounds nuw i8, ptr %13, i64 7
  %19 = load i8, ptr %18, align 1, !range !26, !noundef !27
  %20 = trunc nuw i8 %19 to i1
  br i1 %20, label %30, label %21

21:                                               ; preds = %17
  %22 = load i16, ptr %13, align 2
  %.off = add i16 %22, -32767
  %switch = icmp ult i16 %.off, 3
  br i1 %switch, label %23, label %30

23:                                               ; preds = %21
  %24 = sext i16 %3 to i32
  %25 = tail call i32 @SDL_abs_REAL(i32 noundef %24) #13
  %26 = icmp slt i32 %25, 8191
  br i1 %26, label %27, label %30

27:                                               ; preds = %23, %9
  store i16 %3, ptr %13, align 2
  %28 = getelementptr inbounds nuw i8, ptr %13, i64 2
  store i16 %3, ptr %28, align 2
  %29 = getelementptr inbounds nuw i8, ptr %13, i64 4
  store i16 %3, ptr %29, align 2
  store i8 1, ptr %14, align 2
  br label %39

30:                                               ; preds = %21, %23, %17
  %31 = getelementptr inbounds nuw i8, ptr %13, i64 2
  %32 = load i16, ptr %31, align 2
  %33 = icmp eq i16 %3, %32
  br i1 %33, label %34, label %38

34:                                               ; preds = %30
  %35 = getelementptr inbounds nuw i8, ptr %13, i64 9
  %36 = load i8, ptr %35, align 1, !range !26, !noundef !27
  %37 = trunc nuw i8 %36 to i1
  br i1 %37, label %38, label %88

38:                                               ; preds = %34, %30
  store i8 1, ptr %18, align 1
  br label %39

39:                                               ; preds = %38, %27
  %40 = phi i16 [ %32, %38 ], [ %3, %27 ]
  %41 = getelementptr inbounds nuw i8, ptr %13, i64 8
  %42 = load i8, ptr %41, align 2, !range !26, !noundef !27
  %43 = trunc nuw i8 %42 to i1
  br i1 %43, label %57, label %44

44:                                               ; preds = %39
  %45 = sext i16 %3 to i32
  %46 = sext i16 %40 to i32
  %47 = sub nsw i32 %45, %46
  %48 = tail call i32 @SDL_abs_REAL(i32 noundef %47) #13
  %49 = icmp slt i32 %48, 410
  br i1 %49, label %50, label %.critedge

50:                                               ; preds = %44
  %51 = getelementptr inbounds nuw i8, ptr %1, i64 40
  %52 = load i64, ptr %51, align 8
  %53 = and i64 %52, 71776119061217280
  %54 = icmp eq i64 %53, 33214047251857408
  br i1 %54, label %.critedge, label %88

.critedge:                                        ; preds = %50, %44
  store i8 1, ptr %41, align 2
  %55 = getelementptr inbounds nuw i8, ptr %13, i64 9
  store i8 1, ptr %55, align 1
  %56 = load i16, ptr %13, align 2
  tail call void @SDL_SendJoystickAxis(i64 noundef %0, ptr noundef nonnull %1, i8 noundef zeroext %2, i16 noundef signext %56)
  store i8 0, ptr %55, align 1
  br label %57

57:                                               ; preds = %.critedge, %39
  %.b1.i = load i1, ptr @SDL_joystick_allows_background_events, align 1
  br i1 %.b1.i, label %SDL_PrivateJoystickShouldIgnoreEvent.exit.thread, label %58

58:                                               ; preds = %57
  %59 = tail call zeroext i1 @SDL_HasWindows() #13
  br i1 %59, label %60, label %SDL_PrivateJoystickShouldIgnoreEvent.exit.thread

60:                                               ; preds = %58
  %61 = tail call ptr @SDL_GetKeyboardFocus_REAL() #13
  %62 = icmp eq ptr %61, null
  br i1 %62, label %SDL_PrivateJoystickShouldIgnoreEvent.exit, label %SDL_PrivateJoystickShouldIgnoreEvent.exit.thread

SDL_PrivateJoystickShouldIgnoreEvent.exit:        ; preds = %60
  %63 = getelementptr inbounds nuw i8, ptr %13, i64 9
  %64 = load i8, ptr %63, align 1, !range !26, !noundef !27
  %65 = trunc nuw i8 %64 to i1
  br i1 %65, label %88, label %66

66:                                               ; preds = %SDL_PrivateJoystickShouldIgnoreEvent.exit
  %67 = getelementptr inbounds nuw i8, ptr %13, i64 4
  %68 = load i16, ptr %67, align 2
  %69 = icmp sgt i16 %3, %68
  br i1 %69, label %70, label %73

70:                                               ; preds = %66
  %71 = getelementptr inbounds nuw i8, ptr %13, i64 2
  %72 = load i16, ptr %71, align 2
  %.not50 = icmp slt i16 %3, %72
  br i1 %.not50, label %73, label %88

73:                                               ; preds = %70, %66
  %74 = icmp slt i16 %3, %68
  br i1 %74, label %75, label %SDL_PrivateJoystickShouldIgnoreEvent.exit.thread

75:                                               ; preds = %73
  %76 = getelementptr inbounds nuw i8, ptr %13, i64 2
  %77 = load i16, ptr %76, align 2
  %.not51 = icmp sgt i16 %3, %77
  br i1 %.not51, label %SDL_PrivateJoystickShouldIgnoreEvent.exit.thread, label %88

SDL_PrivateJoystickShouldIgnoreEvent.exit.thread: ; preds = %58, %60, %57, %75, %73
  %78 = getelementptr inbounds nuw i8, ptr %13, i64 2
  store i16 %3, ptr %78, align 2
  %79 = getelementptr inbounds nuw i8, ptr %1, i64 312
  store i64 %0, ptr %79, align 8
  %80 = tail call zeroext i1 @SDL_EventEnabled_REAL(i32 noundef 1536) #13
  br i1 %80, label %81, label %88

81:                                               ; preds = %SDL_PrivateJoystickShouldIgnoreEvent.exit.thread
  call void @llvm.lifetime.start.p0(i64 128, ptr nonnull %5) #13
  store i32 1536, ptr %5, align 8
  %82 = getelementptr inbounds nuw i8, ptr %5, i64 8
  store i64 %0, ptr %82, align 8
  %83 = load i32, ptr %1, align 8
  %84 = getelementptr inbounds nuw i8, ptr %5, i64 16
  store i32 %83, ptr %84, align 8
  %85 = getelementptr inbounds nuw i8, ptr %5, i64 20
  store i8 %2, ptr %85, align 4
  %86 = getelementptr inbounds nuw i8, ptr %5, i64 24
  store i16 %3, ptr %86, align 8
  %87 = call zeroext i1 @SDL_PushEvent_REAL(ptr noundef nonnull %5) #13
  call void @llvm.lifetime.end.p0(i64 128, ptr nonnull %5) #13
  br label %88

88:                                               ; preds = %SDL_PrivateJoystickShouldIgnoreEvent.exit.thread, %81, %SDL_PrivateJoystickShouldIgnoreEvent.exit, %70, %75, %50, %34, %4
  ret void
}